; ModuleID = '13/1526.c'
source_filename = "13/1526.c"
target datalayout = "e-m:e-p270:32:32-p271:32:32-p272:64:64-i64:64-f80:128-n8:16:32:64-S128"
target triple = "x86_64-pc-linux-gnu"

@.str = private unnamed_addr constant [3 x i8] c"%d\00", align 1
@.str.1 = private unnamed_addr constant [4 x i8] c" %d\00", align 1

; Function Attrs: noinline nounwind uwtable
define dso_local i32 @main() #0 {
  %1 = alloca i32, align 4
  %2 = alloca i32, align 4
  %3 = alloca i32, align 4
  %4 = alloca i32, align 4
  %5 = alloca i32, align 4
  %6 = alloca i32, align 4
  %7 = alloca [1000 x i32], align 16
  store i32 0, i32* %1, align 4
  store i32 1, i32* %5, align 4
  %8 = call i32 (i8*, ...) @__isoc99_scanf(i8* getelementptr inbounds ([3 x i8], [3 x i8]* @.str, i64 0, i64 0), i32* %2)
  %9 = load i32, i32* %2, align 4
  %10 = icmp eq i32 %9, 0
  br i1 %10, label %11, label %12

11:                                               ; preds = %0
  store i32 0, i32* %1, align 4
  br label %57

12:                                               ; preds = %0
  %13 = call i32 (i8*, ...) @__isoc99_scanf(i8* getelementptr inbounds ([3 x i8], [3 x i8]* @.str, i64 0, i64 0), i32* %6)
  %14 = load i32, i32* %6, align 4
  %15 = call i32 (i8*, ...) @printf(i8* getelementptr inbounds ([3 x i8], [3 x i8]* @.str, i64 0, i64 0), i32 %14)
  %16 = load i32, i32* %6, align 4
  %17 = getelementptr inbounds [1000 x i32], [1000 x i32]* %7, i64 0, i64 0
  store i32 %16, i32* %17, align 16
  store i32 1, i32* %3, align 4
  br label %18

18:                                               ; preds = %53, %12
  %19 = load i32, i32* %3, align 4
  %20 = load i32, i32* %2, align 4
  %21 = icmp slt i32 %19, %20
  br i1 %21, label %22, label %56

22:                                               ; preds = %18
  %23 = call i32 (i8*, ...) @__isoc99_scanf(i8* getelementptr inbounds ([3 x i8], [3 x i8]* @.str, i64 0, i64 0), i32* %6)
  store i32 0, i32* %4, align 4
  br label %24

24:                                               ; preds = %37, %22
  %25 = load i32, i32* %4, align 4
  %26 = load i32, i32* %5, align 4
  %27 = icmp slt i32 %25, %26
  br i1 %27, label %28, label %35

28:                                               ; preds = %24
  %29 = load i32, i32* %4, align 4
  %30 = sext i32 %29 to i64
  %31 = getelementptr inbounds [1000 x i32], [1000 x i32]* %7, i64 0, i64 %30
  %32 = load i32, i32* %31, align 4
  %33 = load i32, i32* %6, align 4
  %34 = icmp ne i32 %32, %33
  br label %35

35:                                               ; preds = %28, %24
  %36 = phi i1 [ false, %24 ], [ %34, %28 ]
  br i1 %36, label %37, label %40

37:                                               ; preds = %35
  %38 = load i32, i32* %4, align 4
  %39 = add nsw i32 %38, 1
  store i32 %39, i32* %4, align 4
  br label %24

40:                                               ; preds = %35
  %41 = load i32, i32* %4, align 4
  %42 = load i32, i32* %5, align 4
  %43 = icmp eq i32 %41, %42
  br i1 %43, label %44, label %52

44:                                               ; preds = %40
  %45 = load i32, i32* %6, align 4
  %46 = load i32, i32* %5, align 4
  %47 = add nsw i32 %46, 1
  store i32 %47, i32* %5, align 4
  %48 = sext i32 %46 to i64
  %49 = getelementptr inbounds [1000 x i32], [1000 x i32]* %7, i64 0, i64 %48
  store i32 %45, i32* %49, align 4
  %50 = load i32, i32* %6, align 4
  %51 = call i32 (i8*, ...) @printf(i8* getelementptr inbounds ([4 x i8], [4 x i8]* @.str.1, i64 0, i64 0), i32 %50)
  br label %52

52:                                               ; preds = %44, %40
  br label %53

53:                                               ; preds = %52
  %54 = load i32, i32* %3, align 4
  %55 = add nsw i32 %54, 1
  store i32 %55, i32* %3, align 4
  br label %18

56:                                               ; preds = %18
  store i32 0, i32* %1, align 4
  br label %57

57:                                               ; preds = %56, %11
  %58 = load i32, i32* %1, align 4
  ret i32 %58
}

declare dso_local i32 @__isoc99_scanf(i8*, ...) #1

declare dso_local i32 @printf(i8*, ...) #1


!llvm.module.flags = !{!0}
!llvm.ident = !{!1}

!0 = !{i32 1, !"wchar_size", i32 4}
!1 = !{!"clang version 10.0.0-4ubuntu1 "}
