; ModuleID = 'source-C-CXX/12/1526.c'
source_filename = "source-C-CXX/12/1526.c"
target datalayout = "e-m:e-p270:32:32-p271:32:32-p272:64:64-i64:64-f80:128-n8:16:32:64-S128"
target triple = "x86_64-pc-linux-gnu"

@.str = private unnamed_addr constant [3 x i8] c"%d\00", align 1
@.str.1 = private unnamed_addr constant [4 x i8] c" %d\00", align 1

; Function Attrs: nofree nounwind sspstrong uwtable
define dso_local i32 @main() local_unnamed_addr #0 {
  %1 = alloca i32, align 4
  %2 = alloca i32, align 4
  %3 = alloca [1000 x i32], align 16
  %4 = bitcast i32* %1 to i8*
  call void @llvm.lifetime.start.p0i8(i64 4, i8* nonnull %4) #3
  %5 = bitcast i32* %2 to i8*
  call void @llvm.lifetime.start.p0i8(i64 4, i8* nonnull %5) #3
  %6 = bitcast [1000 x i32]* %3 to i8*
  call void @llvm.lifetime.start.p0i8(i64 4000, i8* nonnull %6) #3
  %7 = call i32 (i8*, ...) @__isoc99_scanf(i8* getelementptr inbounds ([3 x i8], [3 x i8]* @.str, i64 0, i64 0), i32* nonnull %1)
  %8 = load i32, i32* %1, align 4, !tbaa !5
  %9 = icmp eq i32 %8, 0
  br i1 %9, label %49, label %10

10:                                               ; preds = %0
  %11 = call i32 (i8*, ...) @__isoc99_scanf(i8* getelementptr inbounds ([3 x i8], [3 x i8]* @.str, i64 0, i64 0), i32* nonnull %2)
  %12 = load i32, i32* %2, align 4, !tbaa !5
  %13 = call i32 (i8*, ...) @printf(i8* nonnull dereferenceable(1) getelementptr inbounds ([3 x i8], [3 x i8]* @.str, i64 0, i64 0), i32 %12)
  %14 = load i32, i32* %2, align 4, !tbaa !5
  %15 = getelementptr inbounds [1000 x i32], [1000 x i32]* %3, i64 0, i64 0
  store i32 %14, i32* %15, align 16, !tbaa !5
  %16 = load i32, i32* %1, align 4, !tbaa !5
  %17 = icmp sgt i32 %16, 1
  br i1 %17, label %18, label %49

18:                                               ; preds = %10, %44
  %19 = phi i32 [ %45, %44 ], [ 1, %10 ]
  %20 = phi i32 [ %46, %44 ], [ 1, %10 ]
  %21 = call i32 (i8*, ...) @__isoc99_scanf(i8* getelementptr inbounds ([3 x i8], [3 x i8]* @.str, i64 0, i64 0), i32* nonnull %2)
  %22 = load i32, i32* %2, align 4
  %23 = icmp sgt i32 %19, 0
  br i1 %23, label %24, label %36

24:                                               ; preds = %18
  %25 = zext i32 %19 to i64
  br label %26

26:                                               ; preds = %24, %31
  %27 = phi i64 [ 0, %24 ], [ %32, %31 ]
  %28 = getelementptr inbounds [1000 x i32], [1000 x i32]* %3, i64 0, i64 %27
  %29 = load i32, i32* %28, align 4, !tbaa !5
  %30 = icmp eq i32 %29, %22
  br i1 %30, label %34, label %31

31:                                               ; preds = %26
  %32 = add nuw nsw i64 %27, 1
  %33 = icmp eq i64 %32, %25
  br i1 %33, label %39, label %26, !llvm.loop !9

34:                                               ; preds = %26
  %35 = trunc i64 %27 to i32
  br label %36

36:                                               ; preds = %34, %18
  %37 = phi i32 [ 0, %18 ], [ %35, %34 ]
  %38 = icmp eq i32 %37, %19
  br i1 %38, label %39, label %44

39:                                               ; preds = %31, %36
  %40 = add nsw i32 %19, 1
  %41 = sext i32 %19 to i64
  %42 = getelementptr inbounds [1000 x i32], [1000 x i32]* %3, i64 0, i64 %41
  store i32 %22, i32* %42, align 4, !tbaa !5
  %43 = call i32 (i8*, ...) @printf(i8* nonnull dereferenceable(1) getelementptr inbounds ([4 x i8], [4 x i8]* @.str.1, i64 0, i64 0), i32 %22)
  br label %44

44:                                               ; preds = %36, %39
  %45 = phi i32 [ %40, %39 ], [ %19, %36 ]
  %46 = add nuw nsw i32 %20, 1
  %47 = load i32, i32* %1, align 4, !tbaa !5
  %48 = icmp slt i32 %46, %47
  br i1 %48, label %18, label %49, !llvm.loop !11

49:                                               ; preds = %44, %10, %0
  call void @llvm.lifetime.end.p0i8(i64 4000, i8* nonnull %6) #3
  call void @llvm.lifetime.end.p0i8(i64 4, i8* nonnull %5) #3
  call void @llvm.lifetime.end.p0i8(i64 4, i8* nonnull %4) #3
  ret i32 0
}

; Function Attrs: argmemonly mustprogress nofree nosync nounwind willreturn
declare void @llvm.lifetime.start.p0i8(i64 immarg, i8* nocapture) #1

; Function Attrs: nofree nounwind
declare noundef i32 @__isoc99_scanf(i8* nocapture noundef readonly, ...) local_unnamed_addr #2

; Function Attrs: nofree nounwind
declare noundef i32 @printf(i8* nocapture noundef readonly, ...) local_unnamed_addr #2

; Function Attrs: argmemonly mustprogress nofree nosync nounwind willreturn
declare void @llvm.lifetime.end.p0i8(i64 immarg, i8* nocapture) #1


!llvm.module.flags = !{!0, !1, !2, !3}
!llvm.ident = !{!4}

!0 = !{i32 1, !"wchar_size", i32 4}
!1 = !{i32 7, !"PIC Level", i32 2}
!2 = !{i32 7, !"PIE Level", i32 2}
!3 = !{i32 7, !"uwtable", i32 1}
!4 = !{!"clang version 13.0.0"}
!5 = !{!6, !6, i64 0}
!6 = !{!"int", !7, i64 0}
!7 = !{!"omnipotent char", !8, i64 0}
!8 = !{!"Simple C/C++ TBAA"}
!9 = distinct !{!9, !10}
!10 = !{!"llvm.loop.mustprogress"}
!11 = distinct !{!11, !10}
